; Function Attrs: mustprogress nounwind uwtable
define internal void @_ZNK12_GLOBAL__N_124EarlyCSELegacyCommonPassILb1EE16getAnalysisUsageERN4llvm13AnalysisUsageE(ptr nonnull readnone align 8 captures(none) %0, ptr noundef nonnull align 8 dereferenceable(161) %1) unnamed_addr #0 align 2 {
  %3 = tail call noundef nonnull align 8 dereferenceable(161) ptr @_ZN4llvm13AnalysisUsage13addRequiredIDERc(ptr noundef nonnull align 8 dereferenceable(161) %1, ptr noundef nonnull align 1 dereferenceable(1) @_ZN4llvm22AssumptionCacheTracker2IDE) #21
  %4 = tail call noundef nonnull align 8 dereferenceable(161) ptr @_ZN4llvm13AnalysisUsage13addRequiredIDERc(ptr noundef nonnull align 8 dereferenceable(161) %1, ptr noundef nonnull align 1 dereferenceable(1) @_ZN4llvm24DominatorTreeWrapperPass2IDE) #21
  %5 = tail call noundef nonnull align 8 dereferenceable(161) ptr @_ZN4llvm13AnalysisUsage13addRequiredIDERc(ptr noundef nonnull align 8 dereferenceable(161) %1, ptr noundef nonnull align 1 dereferenceable(1) @_ZN4llvm28TargetLibraryInfoWrapperPass2IDE) #21
  %6 = tail call noundef nonnull align 8 dereferenceable(161) ptr @_ZN4llvm13AnalysisUsage13addRequiredIDERc(ptr noundef nonnull align 8 dereferenceable(161) %1, ptr noundef nonnull align 1 dereferenceable(1) @_ZN4llvm30TargetTransformInfoWrapperPass2IDE) #21
  %7 = tail call noundef nonnull align 8 dereferenceable(161) ptr @_ZN4llvm13AnalysisUsage13addRequiredIDERc(ptr noundef nonnull align 8 dereferenceable(161) %1, ptr noundef nonnull align 1 dereferenceable(1) @_ZN4llvm20AAResultsWrapperPass2IDE) #21
  %8 = tail call noundef nonnull align 8 dereferenceable(161) ptr @_ZN4llvm13AnalysisUsage13addRequiredIDERc(ptr noundef nonnull align 8 dereferenceable(161) %1, ptr noundef nonnull align 1 dereferenceable(1) @_ZN4llvm20MemorySSAWrapperPass2IDE) #21
  %9 = getelementptr inbounds nuw i8, ptr %1, i64 112
  tail call void @_ZN4llvm13AnalysisUsage10pushUniqueERNS_15SmallVectorImplIPKvEES3_(ptr noundef nonnull align 8 dereferenceable(161) %1, ptr noundef nonnull align 8 dereferenceable(16) %9, ptr noundef nonnull @_ZN4llvm20MemorySSAWrapperPass2IDE)
  tail call void @_ZN4llvm13AnalysisUsage10pushUniqueERNS_15SmallVectorImplIPKvEES3_(ptr noundef nonnull align 8 dereferenceable(161) %1, ptr noundef nonnull align 8 dereferenceable(16) %9, ptr noundef nonnull @_ZN4llvm20GlobalsAAWrapperPass2IDE)
  tail call void @_ZN4llvm13AnalysisUsage10pushUniqueERNS_15SmallVectorImplIPKvEES3_(ptr noundef nonnull align 8 dereferenceable(161) %1, ptr noundef nonnull align 8 dereferenceable(16) %9, ptr noundef nonnull @_ZN4llvm20AAResultsWrapperPass2IDE)
  tail call void @_ZN4llvm13AnalysisUsage15setPreservesCFGEv(ptr noundef nonnull align 8 dereferenceable(161) %1) #21
  ret void
}